; Function Attrs: nounwind uwtable
define ptr @lv_cache_acquire_or_create(ptr noundef %0, ptr noundef %1, ptr noundef %2) local_unnamed_addr #0 {
  %.not = icmp eq ptr %0, null
  br i1 %.not, label %.preheader, label %4

.preheader:                                       ; preds = %3, %.preheader
  br label %.preheader

4:                                                ; preds = %3
  %.not36 = icmp eq ptr %1, null
  br i1 %.not36, label %.preheader40, label %5

.preheader40:                                     ; preds = %4, %.preheader40
  br label %.preheader40

5:                                                ; preds = %4
  %6 = getelementptr inbounds nuw i8, ptr %0, i64 48
  %7 = tail call i32 @lv_mutex_lock(ptr noundef nonnull %6) #5
  %8 = getelementptr inbounds nuw i8, ptr %0, i64 16
  %9 = load i32, ptr %8, align 8, !tbaa !14
  %.not37 = icmp eq i32 %9, 0
  br i1 %.not37, label %17, label %10

10:                                               ; preds = %5
  %11 = load ptr, ptr %0, align 8, !tbaa !8
  %12 = getelementptr inbounds nuw i8, ptr %11, i64 24
  %13 = load ptr, ptr %12, align 8, !tbaa !19
  %14 = tail call ptr %13(ptr noundef nonnull %0, ptr noundef nonnull %1, ptr noundef %2) #5
  %.not38 = icmp eq ptr %14, null
  br i1 %.not38, label %17, label %15

15:                                               ; preds = %10
  %16 = tail call ptr @lv_cache_entry_acquire_data(ptr noundef nonnull %14) #5
  br label %cache_add_internal_no_lock.exit.thread

17:                                               ; preds = %10, %5
  %18 = getelementptr inbounds nuw i8, ptr %0, i64 12
  %19 = load i32, ptr %18, align 4, !tbaa !13
  %20 = icmp eq i32 %19, 0
  br i1 %20, label %cache_add_internal_no_lock.exit.thread, label %21

21:                                               ; preds = %17
  %22 = load ptr, ptr %0, align 8, !tbaa !8
  %23 = getelementptr inbounds nuw i8, ptr %22, i64 72
  %24 = load ptr, ptr %23, align 8, !tbaa !21
  %25 = tail call i32 %24(ptr noundef nonnull %0, ptr noundef nonnull %1, i64 noundef 0, ptr noundef %2) #5
  switch i32 %25, label %cache_add_internal_no_lock.exit [
    i32 1, label %cache_add_internal_no_lock.exit.thread
    i32 2, label %.lr.ph.i
  ]

.lr.ph.i:                                         ; preds = %21
  %26 = getelementptr inbounds nuw i8, ptr %0, i64 40
  br label %27

27:                                               ; preds = %32, %.lr.ph.i
  %28 = load ptr, ptr %0, align 8, !tbaa !8
  %29 = getelementptr inbounds nuw i8, ptr %28, i64 64
  %30 = load ptr, ptr %29, align 8, !tbaa !22
  %31 = tail call ptr %30(ptr noundef nonnull %0, ptr noundef %2) #5
  %.not.i = icmp eq ptr %31, null
  br i1 %.not.i, label %cache_add_internal_no_lock.exit.thread, label %32

32:                                               ; preds = %27
  %33 = load ptr, ptr %0, align 8, !tbaa !8
  %34 = getelementptr inbounds nuw i8, ptr %33, i64 40
  %35 = load ptr, ptr %34, align 8, !tbaa !23
  tail call void %35(ptr noundef nonnull %0, ptr noundef nonnull %31, ptr noundef %2) #5
  %36 = load ptr, ptr %26, align 8, !tbaa !20
  %37 = tail call ptr @lv_cache_entry_get_data(ptr noundef nonnull %31) #5
  tail call void %36(ptr noundef %37, ptr noundef %2) #5
  tail call void @lv_cache_entry_delete(ptr noundef nonnull %31) #5
  %38 = load ptr, ptr %0, align 8, !tbaa !8
  %39 = getelementptr inbounds nuw i8, ptr %38, i64 72
  %40 = load ptr, ptr %39, align 8, !tbaa !21
  %41 = tail call i32 %40(ptr noundef nonnull %0, ptr noundef nonnull %1, i64 noundef 0, ptr noundef %2) #5
  %42 = icmp eq i32 %41, 2
  br i1 %42, label %27, label %cache_add_internal_no_lock.exit, !llvm.loop !24

cache_add_internal_no_lock.exit:                  ; preds = %32, %21
  %43 = load ptr, ptr %0, align 8, !tbaa !8
  %44 = getelementptr inbounds nuw i8, ptr %43, i64 32
  %45 = load ptr, ptr %44, align 8, !tbaa !26
  %46 = tail call ptr %45(ptr noundef nonnull %0, ptr noundef nonnull %1, ptr noundef %2) #5
  %47 = icmp eq ptr %46, null
  br i1 %47, label %cache_add_internal_no_lock.exit.thread, label %48

48:                                               ; preds = %cache_add_internal_no_lock.exit
  %49 = getelementptr inbounds nuw i8, ptr %0, i64 32
  %50 = load ptr, ptr %49, align 8, !tbaa !27
  %51 = tail call ptr @lv_cache_entry_get_data(ptr noundef nonnull %46) #5
  %52 = tail call zeroext i1 %50(ptr noundef %51, ptr noundef %2) #5
  br i1 %52, label %57, label %53

53:                                               ; preds = %48
  %54 = load ptr, ptr %0, align 8, !tbaa !8
  %55 = getelementptr inbounds nuw i8, ptr %54, i64 40
  %56 = load ptr, ptr %55, align 8, !tbaa !23
  tail call void %56(ptr noundef nonnull %0, ptr noundef nonnull %46, ptr noundef %2) #5
  tail call void @lv_cache_entry_delete(ptr noundef nonnull %46) #5
  br label %cache_add_internal_no_lock.exit.thread

57:                                               ; preds = %48
  %58 = tail call ptr @lv_cache_entry_acquire_data(ptr noundef nonnull %46) #5
  br label %cache_add_internal_no_lock.exit.thread

cache_add_internal_no_lock.exit.thread:           ; preds = %27, %53, %57, %cache_add_internal_no_lock.exit, %21, %17, %15
  %.0 = phi ptr [ %14, %15 ], [ null, %17 ], [ null, %21 ], [ null, %cache_add_internal_no_lock.exit ], [ null, %53 ], [ %46, %57 ], [ null, %27 ]
  %59 = tail call i32 @lv_mutex_unlock(ptr noundef nonnull %6) #5
  ret ptr %.0
}